; Function Attrs: mustprogress uwtable
define hidden void @_ZN4cvc58internal13preprocessing6passes22PseudoBooleanProcessor8mkGeqOneEPNS0_11NodeManagerENS0_12NodeTemplateILb1EEE(ptr dead_on_unwind noalias writable sret(%"class.cvc5::internal::NodeTemplate") align 8 %0, ptr noundef %1, ptr noundef nonnull %2) local_unnamed_addr #3 align 2 personality ptr @__gxx_personality_v0 {
  %4 = alloca %"class.cvc5::internal::NodeBuilder", align 8
  %5 = alloca %"class.cvc5::internal::NodeTemplate.105", align 8
  %6 = alloca %"class.cvc5::internal::NodeTemplate.105", align 8
  %7 = alloca %"class.cvc5::internal::NodeTemplate", align 8
  %8 = alloca %"class.cvc5::internal::TypeNode", align 8
  %9 = alloca %"class.cvc5::internal::Rational", align 8
  %10 = load ptr, ptr %2, align 8, !tbaa !65
  call void @llvm.lifetime.start.p0(i64 8, ptr nonnull %7) #25
  call void @llvm.lifetime.start.p0(i64 8, ptr nonnull %8) #25
  call void @_ZNK4cvc58internal12NodeTemplateILb1EE7getTypeEb(ptr dead_on_unwind nonnull writable sret(%"class.cvc5::internal::TypeNode") align 8 %8, ptr noundef nonnull align 8 dereferenceable(8) %2, i1 noundef zeroext false)
  call void @llvm.lifetime.start.p0(i64 32, ptr nonnull %9) #25
  invoke void @_ZN4cvc58internal8RationalC2Ei(ptr noundef nonnull align 8 dereferenceable(32) %9, i32 noundef 1)
          to label %11 unwind label %57

11:                                               ; preds = %3
  invoke void @_ZN4cvc58internal11NodeManager16mkConstRealOrIntERKNS0_8TypeNodeERKNS0_8RationalE(ptr dead_on_unwind nonnull writable sret(%"class.cvc5::internal::NodeTemplate") align 8 %7, ptr noundef nonnull align 8 dereferenceable(3560) %1, ptr noundef nonnull align 8 dereferenceable(8) %8, ptr noundef nonnull align 8 dereferenceable(32) %9)
          to label %12 unwind label %59

12:                                               ; preds = %11
  %13 = load ptr, ptr %7, align 8, !tbaa !65
  call void @llvm.lifetime.start.p0(i64 8, ptr nonnull %5)
  call void @llvm.lifetime.start.p0(i64 8, ptr nonnull %6)
  call void @llvm.lifetime.start.p0(i64 128, ptr nonnull %4) #25, !noalias !203
  %14 = getelementptr inbounds nuw i8, ptr %10, i64 16
  %15 = load ptr, ptr %14, align 8, !tbaa !166, !noalias !203
  invoke void @_ZN4cvc58internal11NodeBuilderC1EPNS0_11NodeManagerENS0_4kind6Kind_tE(ptr noundef nonnull align 8 dereferenceable(124) %4, ptr noundef %15, i32 noundef 78)
          to label %.noexc unwind label %61

.noexc:                                           ; preds = %12
  store ptr %10, ptr %5, align 8, !tbaa !82, !noalias !203
  %16 = invoke noundef nonnull align 8 dereferenceable(124) ptr @_ZN4cvc58internal11NodeBuilderlsENS0_12NodeTemplateILb0EEE(ptr noundef nonnull align 8 dereferenceable(124) %4, ptr noundef nonnull %5)
          to label %17 unwind label %22, !noalias !203

17:                                               ; preds = %.noexc
  store ptr %13, ptr %6, align 8, !tbaa !82, !noalias !203
  %18 = invoke noundef nonnull align 8 dereferenceable(124) ptr @_ZN4cvc58internal11NodeBuilderlsENS0_12NodeTemplateILb0EEE(ptr noundef nonnull align 8 dereferenceable(124) %16, ptr noundef nonnull %6)
          to label %19 unwind label %24, !noalias !203

19:                                               ; preds = %17
  invoke void @_ZN4cvc58internal11NodeBuilder13constructNodeEv(ptr dead_on_unwind writable sret(%"class.cvc5::internal::NodeTemplate") align 8 %0, ptr noundef nonnull align 8 dereferenceable(124) %4)
          to label %27 unwind label %20

20:                                               ; preds = %19
  %21 = landingpad { ptr, i32 }
          cleanup
  br label %26

22:                                               ; preds = %.noexc
  %23 = landingpad { ptr, i32 }
          cleanup
  br label %26

24:                                               ; preds = %17
  %25 = landingpad { ptr, i32 }
          cleanup
  br label %26

26:                                               ; preds = %24, %22, %20
  %.pn5.i = phi { ptr, i32 } [ %21, %20 ], [ %25, %24 ], [ %23, %22 ]
  call void @_ZN4cvc58internal11NodeBuilderD1Ev(ptr noundef nonnull align 8 dereferenceable(124) %4) #25
  call void @llvm.lifetime.end.p0(i64 128, ptr nonnull %4) #25, !noalias !203
  br label %.body

27:                                               ; preds = %19
  call void @_ZN4cvc58internal11NodeBuilderD1Ev(ptr noundef nonnull align 8 dereferenceable(124) %4) #25
  call void @llvm.lifetime.end.p0(i64 128, ptr nonnull %4) #25, !noalias !203
  call void @llvm.lifetime.end.p0(i64 8, ptr nonnull %5)
  call void @llvm.lifetime.end.p0(i64 8, ptr nonnull %6)
  %28 = load ptr, ptr %7, align 8, !tbaa !65
  %29 = load i64, ptr %28, align 8
  %30 = and i64 %29, 1152920405095219200
  %.not.i.i = icmp eq i64 %30, 1152920405095219200
  br i1 %.not.i.i, label %_ZN4cvc58internal12NodeTemplateILb1EED2Ev.exit, label %31, !prof !69

31:                                               ; preds = %27
  %32 = add i64 %29, 1152920405095219200
  %33 = and i64 %32, 1152920405095219200
  %34 = and i64 %29, -1152920405095219201
  %35 = or disjoint i64 %33, %34
  store i64 %35, ptr %28, align 8
  %36 = icmp eq i64 %33, 0
  br i1 %36, label %37, label %_ZN4cvc58internal12NodeTemplateILb1EED2Ev.exit, !prof !69

37:                                               ; preds = %31
  invoke void @_ZN4cvc58internal4expr9NodeValue15markForDeletionEv(ptr noundef nonnull align 8 dereferenceable(24) %28)
          to label %_ZN4cvc58internal12NodeTemplateILb1EED2Ev.exit unwind label %38

38:                                               ; preds = %37
  %39 = landingpad { ptr, i32 }
          catch ptr null
  %40 = extractvalue { ptr, i32 } %39, 0
  call void @__clang_call_terminate(ptr %40) #27
  unreachable

_ZN4cvc58internal12NodeTemplateILb1EED2Ev.exit:   ; preds = %27, %31, %37
  invoke void @__gmpq_clear(ptr noundef nonnull align 8 dereferenceable(32) %9)
          to label %_ZN4cvc58internal8RationalD2Ev.exit unwind label %41

41:                                               ; preds = %_ZN4cvc58internal12NodeTemplateILb1EED2Ev.exit
  %42 = landingpad { ptr, i32 }
          catch ptr null
  %43 = extractvalue { ptr, i32 } %42, 0
  call void @__clang_call_terminate(ptr %43) #27
  unreachable

_ZN4cvc58internal8RationalD2Ev.exit:              ; preds = %_ZN4cvc58internal12NodeTemplateILb1EED2Ev.exit
  call void @llvm.lifetime.end.p0(i64 32, ptr nonnull %9) #25
  %44 = load ptr, ptr %8, align 8, !tbaa !149
  %45 = load i64, ptr %44, align 8
  %46 = and i64 %45, 1152920405095219200
  %.not.i.i8 = icmp eq i64 %46, 1152920405095219200
  br i1 %.not.i.i8, label %_ZN4cvc58internal8TypeNodeD2Ev.exit, label %47, !prof !69

47:                                               ; preds = %_ZN4cvc58internal8RationalD2Ev.exit
  %48 = add i64 %45, 1152920405095219200
  %49 = and i64 %48, 1152920405095219200
  %50 = and i64 %45, -1152920405095219201
  %51 = or disjoint i64 %49, %50
  store i64 %51, ptr %44, align 8
  %52 = icmp eq i64 %49, 0
  br i1 %52, label %53, label %_ZN4cvc58internal8TypeNodeD2Ev.exit, !prof !69

53:                                               ; preds = %47
  invoke void @_ZN4cvc58internal4expr9NodeValue15markForDeletionEv(ptr noundef nonnull align 8 dereferenceable(24) %44)
          to label %_ZN4cvc58internal8TypeNodeD2Ev.exit unwind label %54

54:                                               ; preds = %53
  %55 = landingpad { ptr, i32 }
          catch ptr null
  %56 = extractvalue { ptr, i32 } %55, 0
  call void @__clang_call_terminate(ptr %56) #27
  unreachable

_ZN4cvc58internal8TypeNodeD2Ev.exit:              ; preds = %_ZN4cvc58internal8RationalD2Ev.exit, %47, %53
  call void @llvm.lifetime.end.p0(i64 8, ptr nonnull %8) #25
  call void @llvm.lifetime.end.p0(i64 8, ptr nonnull %7) #25
  ret void

57:                                               ; preds = %3
  %58 = landingpad { ptr, i32 }
          cleanup
  br label %_ZN4cvc58internal8RationalD2Ev.exit9

59:                                               ; preds = %11
  %60 = landingpad { ptr, i32 }
          cleanup
  br label %63

61:                                               ; preds = %12
  %62 = landingpad { ptr, i32 }
          cleanup
  br label %.body

.body:                                            ; preds = %26, %61
  %eh.lpad-body = phi { ptr, i32 } [ %62, %61 ], [ %.pn5.i, %26 ]
  call void @_ZN4cvc58internal12NodeTemplateILb1EED2Ev(ptr noundef nonnull align 8 dereferenceable(8) %7) #25
  br label %63

63:                                               ; preds = %.body, %59
  %.pn = phi { ptr, i32 } [ %eh.lpad-body, %.body ], [ %60, %59 ]
  invoke void @__gmpq_clear(ptr noundef nonnull align 8 dereferenceable(32) %9)
          to label %_ZN4cvc58internal8RationalD2Ev.exit9 unwind label %64

64:                                               ; preds = %63
  %65 = landingpad { ptr, i32 }
          catch ptr null
  %66 = extractvalue { ptr, i32 } %65, 0
  call void @__clang_call_terminate(ptr %66) #27
  unreachable

_ZN4cvc58internal8RationalD2Ev.exit9:             ; preds = %63, %57
  %.pn.pn = phi { ptr, i32 } [ %58, %57 ], [ %.pn, %63 ]
  call void @llvm.lifetime.end.p0(i64 32, ptr nonnull %9) #25
  call void @_ZN4cvc58internal8TypeNodeD2Ev(ptr noundef nonnull align 8 dereferenceable(8) %8) #25
  call void @llvm.lifetime.end.p0(i64 8, ptr nonnull %8) #25
  call void @llvm.lifetime.end.p0(i64 8, ptr nonnull %7) #25
  resume { ptr, i32 } %.pn.pn
}